target datalayout = "e-m:e-p270:32:32-p271:32:32-p272:64:64-i64:64-i128:128-f80:128-n8:16:32:64-S128"
target triple = "x86_64-pc-linux-gnu"

%struct.expert_field = type { i32, i32 }

@hf_scsi_spc_subpagecode = internal global i32 0, align 4
@hf_scsi_spc_pagecode = internal global i32 0, align 4
@hf_scsi_sbcpagecode = internal global i32 0, align 4
@hf_scsi_sscpagecode = internal global i32 0, align 4
@hf_scsi_mmcpagecode = internal global i32 0, align 4
@hf_scsi_smcpagecode = internal global i32 0, align 4
@hf_scsi_modepage_ps = internal global i32 0, align 4
@hf_scsi_modepage_spf = internal global i32 0, align 4
@hf_scsi_modepage_plen = internal global i32 0, align 4
@ett_scsi_page = internal global i32 0, align 4
@ei_scsi_unknown_page = internal global %struct.expert_field zeroinitializer, align 4
@.str.1620 = private unnamed_addr constant [17 x i8] c"Unknown (0x%08x)\00", align 1
@.str.1626 = private unnamed_addr constant [13 x i8] c"%s Mode Page\00", align 1

; Function Attrs: nounwind uwtable
define internal i32 @dissect_scsi_modepage(ptr noundef %0, ptr noundef %1, ptr noundef %2, i32 noundef %3, i32 noundef %4) #0 {
  %6 = alloca i32, align 4
  %7 = alloca ptr, align 8
  %8 = alloca ptr, align 8
  %9 = alloca ptr, align 8
  %10 = alloca i32, align 4
  %11 = alloca i32, align 4
  %12 = alloca i16, align 2
  %13 = alloca i8, align 1
  %14 = alloca i8, align 1
  %15 = alloca i8, align 1
  %16 = alloca ptr, align 8
  %17 = alloca ptr, align 8
  %18 = alloca i32, align 4
  %19 = alloca ptr, align 8
  store ptr %0, ptr %7, align 8
  store ptr %1, ptr %8, align 8
  store ptr %2, ptr %9, align 8
  store i32 %3, ptr %10, align 4
  store i32 %4, ptr %11, align 4
  store i8 0, ptr %15, align 1
  %20 = load ptr, ptr %7, align 8
  %21 = load i32, ptr %10, align 4
  %22 = call zeroext i8 @tvb_get_guint8(ptr noundef %20, i32 noundef %21)
  %23 = zext i8 %22 to i32
  %24 = and i32 %23, 63
  %25 = trunc i32 %24 to i8
  store i8 %25, ptr %13, align 1
  %26 = load ptr, ptr %7, align 8
  %27 = load i32, ptr %10, align 4
  %28 = call zeroext i8 @tvb_get_guint8(ptr noundef %26, i32 noundef %27)
  %29 = zext i8 %28 to i32
  %30 = and i32 %29, 64
  %31 = trunc i32 %30 to i8
  store i8 %31, ptr %14, align 1
  %32 = load i8, ptr %14, align 1
  %33 = icmp ne i8 %32, 0
  br i1 %33, label %34, label %43

34:                                               ; preds = %5
  %35 = load ptr, ptr %7, align 8
  %36 = load i32, ptr %10, align 4
  %37 = add i32 %36, 1
  %38 = call zeroext i8 @tvb_get_guint8(ptr noundef %35, i32 noundef %37)
  store i8 %38, ptr %15, align 1
  %39 = load ptr, ptr %7, align 8
  %40 = load i32, ptr %10, align 4
  %41 = add i32 %40, 2
  %42 = call zeroext i16 @tvb_get_ntohs(ptr noundef %39, i32 noundef %41)
  store i16 %42, ptr %12, align 2
  br label %49

43:                                               ; preds = %5
  %44 = load ptr, ptr %7, align 8
  %45 = load i32, ptr %10, align 4
  %46 = add i32 %45, 1
  %47 = call zeroext i8 @tvb_get_guint8(ptr noundef %44, i32 noundef %46)
  %48 = zext i8 %47 to i16
  store i16 %48, ptr %12, align 2
  br label %49

49:                                               ; preds = %43, %34
  %50 = load i8, ptr %13, align 1
  %51 = zext i8 %50 to i32
  %52 = and i32 %51, 63
  %53 = call ptr @try_val_to_str(i32 noundef %52, ptr noundef @scsi_spc_modepage_val)
  %54 = icmp eq ptr %53, null
  br i1 %54, label %55, label %68

55:                                               ; preds = %49
  %56 = load i32, ptr %11, align 4
  switch i32 %56, label %65 [
    i32 0, label %57
    i32 1, label %59
    i32 8, label %61
    i32 5, label %63
  ]

57:                                               ; preds = %55
  store ptr @scsi_sbc_modepage_val, ptr %17, align 8
  %58 = load i32, ptr @hf_scsi_sbcpagecode, align 4
  store i32 %58, ptr %18, align 4
  store ptr @dissect_scsi_sbc_modepage, ptr %19, align 8
  br label %67

59:                                               ; preds = %55
  store ptr @scsi_ssc2_modepage_val, ptr %17, align 8
  %60 = load i32, ptr @hf_scsi_sscpagecode, align 4
  store i32 %60, ptr %18, align 4
  store ptr @dissect_scsi_ssc2_modepage, ptr %19, align 8
  br label %67

61:                                               ; preds = %55
  store ptr @scsi_smc_modepage_val, ptr %17, align 8
  %62 = load i32, ptr @hf_scsi_smcpagecode, align 4
  store i32 %62, ptr %18, align 4
  store ptr @dissect_scsi_smc_modepage, ptr %19, align 8
  br label %67

63:                                               ; preds = %55
  store ptr @scsi_mmc5_modepage_val, ptr %17, align 8
  %64 = load i32, ptr @hf_scsi_mmcpagecode, align 4
  store i32 %64, ptr %18, align 4
  store ptr @dissect_scsi_mmc5_modepage, ptr %19, align 8
  br label %67

65:                                               ; preds = %55
  store ptr @scsi_spc_modepage_val, ptr %17, align 8
  %66 = load i32, ptr @hf_scsi_spc_pagecode, align 4
  store i32 %66, ptr %18, align 4
  store ptr @dissect_scsi_spc_modepage, ptr %19, align 8
  br label %67

67:                                               ; preds = %65, %63, %61, %59, %57
  br label %70

68:                                               ; preds = %49
  store ptr @scsi_spc_modepage_val, ptr %17, align 8
  %69 = load i32, ptr @hf_scsi_spc_pagecode, align 4
  store i32 %69, ptr %18, align 4
  store ptr @dissect_scsi_spc_modepage, ptr %19, align 8
  br label %70

70:                                               ; preds = %68, %67
  %71 = load ptr, ptr %9, align 8
  %72 = load ptr, ptr %7, align 8
  %73 = load i32, ptr %10, align 4
  %74 = load i16, ptr %12, align 2
  %75 = zext i16 %74 to i32
  %76 = load i8, ptr %14, align 1
  %77 = zext i8 %76 to i32
  %78 = icmp ne i32 %77, 0
  %79 = select i1 %78, i32 4, i32 2
  %80 = add i32 %75, %79
  %81 = load i32, ptr @ett_scsi_page, align 4
  %82 = load i8, ptr %13, align 1
  %83 = zext i8 %82 to i32
  %84 = and i32 %83, 63
  %85 = load ptr, ptr %17, align 8
  %86 = call ptr @val_to_str(i32 noundef %84, ptr noundef %85, ptr noundef @.str.1620)
  %87 = call ptr (ptr, ptr, i32, i32, i32, ptr, ptr, ...) @proto_tree_add_subtree_format(ptr noundef %71, ptr noundef %72, i32 noundef %73, i32 noundef %80, i32 noundef %81, ptr noundef null, ptr noundef @.str.1626, ptr noundef %86)
  store ptr %87, ptr %16, align 8
  %88 = load ptr, ptr %16, align 8
  %89 = load i32, ptr @hf_scsi_modepage_ps, align 4
  %90 = load ptr, ptr %7, align 8
  %91 = load i32, ptr %10, align 4
  %92 = call ptr @proto_tree_add_item(ptr noundef %88, i32 noundef %89, ptr noundef %90, i32 noundef %91, i32 noundef 1, i32 noundef 0)
  %93 = load ptr, ptr %16, align 8
  %94 = load i32, ptr @hf_scsi_modepage_spf, align 4
  %95 = load ptr, ptr %7, align 8
  %96 = load i32, ptr %10, align 4
  %97 = call ptr @proto_tree_add_item(ptr noundef %93, i32 noundef %94, ptr noundef %95, i32 noundef %96, i32 noundef 1, i32 noundef 0)
  %98 = load ptr, ptr %16, align 8
  %99 = load i32, ptr %18, align 4
  %100 = load ptr, ptr %7, align 8
  %101 = load i32, ptr %10, align 4
  %102 = call ptr @proto_tree_add_item(ptr noundef %98, i32 noundef %99, ptr noundef %100, i32 noundef %101, i32 noundef 1, i32 noundef 0)
  %103 = load i8, ptr %14, align 1
  %104 = icmp ne i8 %103, 0
  br i1 %104, label %105, label %118

105:                                              ; preds = %70
  %106 = load ptr, ptr %16, align 8
  %107 = load i32, ptr @hf_scsi_spc_subpagecode, align 4
  %108 = load ptr, ptr %7, align 8
  %109 = load i32, ptr %10, align 4
  %110 = add i32 %109, 1
  %111 = call ptr @proto_tree_add_item(ptr noundef %106, i32 noundef %107, ptr noundef %108, i32 noundef %110, i32 noundef 1, i32 noundef 0)
  %112 = load ptr, ptr %16, align 8
  %113 = load i32, ptr @hf_scsi_modepage_plen, align 4
  %114 = load ptr, ptr %7, align 8
  %115 = load i32, ptr %10, align 4
  %116 = add i32 %115, 2
  %117 = call ptr @proto_tree_add_item(ptr noundef %112, i32 noundef %113, ptr noundef %114, i32 noundef %116, i32 noundef 2, i32 noundef 0)
  br label %125

118:                                              ; preds = %70
  %119 = load ptr, ptr %16, align 8
  %120 = load i32, ptr @hf_scsi_modepage_plen, align 4
  %121 = load ptr, ptr %7, align 8
  %122 = load i32, ptr %10, align 4
  %123 = add i32 %122, 1
  %124 = call ptr @proto_tree_add_item(ptr noundef %119, i32 noundef %120, ptr noundef %121, i32 noundef %123, i32 noundef 1, i32 noundef 0)
  br label %125

125:                                              ; preds = %118, %105
  %126 = load ptr, ptr %7, align 8
  %127 = load i32, ptr %10, align 4
  %128 = load i16, ptr %12, align 2
  %129 = zext i16 %128 to i32
  %130 = call i32 @tvb_bytes_exist(ptr noundef %126, i32 noundef %127, i32 noundef %129)
  %131 = icmp ne i32 %130, 0
  br i1 %131, label %136, label %132

132:                                              ; preds = %125
  %133 = load i16, ptr %12, align 2
  %134 = zext i16 %133 to i32
  %135 = add i32 %134, 2
  store i32 %135, ptr %6, align 4
  br label %160

136:                                              ; preds = %125
  %137 = load ptr, ptr %19, align 8
  %138 = load ptr, ptr %7, align 8
  %139 = load ptr, ptr %8, align 8
  %140 = load ptr, ptr %16, align 8
  %141 = load i32, ptr %10, align 4
  %142 = load i8, ptr %13, align 1
  %143 = load i8, ptr %14, align 1
  %144 = load i8, ptr %15, align 1
  %145 = call i32 %137(ptr noundef %138, ptr noundef %139, ptr noundef %140, i32 noundef %141, i8 noundef zeroext %142, i8 noundef zeroext %143, i8 noundef zeroext %144)
  %146 = icmp ne i32 %145, 0
  br i1 %146, label %156, label %147

147:                                              ; preds = %136
  %148 = load ptr, ptr %16, align 8
  %149 = load ptr, ptr %8, align 8
  %150 = load ptr, ptr %7, align 8
  %151 = load i32, ptr %10, align 4
  %152 = add i32 %151, 2
  %153 = load i16, ptr %12, align 2
  %154 = zext i16 %153 to i32
  %155 = call ptr @proto_tree_add_expert(ptr noundef %148, ptr noundef %149, ptr noundef @ei_scsi_unknown_page, ptr noundef %150, i32 noundef %152, i32 noundef %154)
  br label %156

156:                                              ; preds = %147, %136
  %157 = load i16, ptr %12, align 2
  %158 = zext i16 %157 to i32
  %159 = add i32 %158, 2
  store i32 %159, ptr %6, align 4
  br label %160

160:                                              ; preds = %156, %132
  %161 = load i32, ptr %6, align 4
  ret i32 %161
}