; Function Attrs: nounwind uwtable
define internal fastcc range(i32 2, 65538) i32 @dissect_scsi_modepage(ptr noundef %0, ptr noundef %1, ptr noundef nonnull %2, i32 noundef %3, i32 noundef range(i32 0, 128) %4) unnamed_addr #0 {
  %6 = tail call zeroext i8 @tvb_get_guint8(ptr noundef %0, i32 noundef %3) #10
  %7 = and i8 %6, 63
  %8 = tail call zeroext i8 @tvb_get_guint8(ptr noundef %0, i32 noundef %3) #10
  %9 = and i8 %8, 64
  %.not = icmp eq i8 %9, 0
  %10 = add i32 %3, 1
  %11 = tail call zeroext i8 @tvb_get_guint8(ptr noundef %0, i32 noundef %10) #10
  br i1 %.not, label %15, label %12

12:                                               ; preds = %5
  %13 = add i32 %3, 2
  %14 = tail call zeroext i16 @tvb_get_ntohs(ptr noundef %0, i32 noundef %13) #10
  br label %17

15:                                               ; preds = %5
  %16 = zext i8 %11 to i16
  br label %17

17:                                               ; preds = %15, %12
  %.062 = phi i16 [ %14, %12 ], [ %16, %15 ]
  %.061 = phi i8 [ %11, %12 ], [ 0, %15 ]
  %18 = zext nneg i8 %7 to i32
  %19 = tail call ptr @try_val_to_str(i32 noundef %18, ptr noundef nonnull @scsi_spc_modepage_val) #10
  %20 = icmp eq ptr %19, null
  %21 = icmp samesign ult i32 %4, 9
  %or.cond = and i1 %20, %21
  br i1 %or.cond, label %switch.lookup, label %25

switch.lookup:                                    ; preds = %17
  %22 = zext nneg i32 %4 to i64
  %switch.gep = getelementptr inbounds nuw [9 x ptr], ptr @switch.table.dissect_scsi_modepage, i64 0, i64 %22
  %switch.load = load ptr, ptr %switch.gep, align 8
  %23 = zext nneg i32 %4 to i64
  %switch.gep66 = getelementptr inbounds nuw [9 x ptr], ptr @switch.table.dissect_spc_modesense10, i64 0, i64 %23
  %switch.load67 = load ptr, ptr %switch.gep66, align 8
  %24 = zext nneg i32 %4 to i64
  %switch.gep68 = getelementptr inbounds nuw [9 x ptr], ptr @switch.table.dissect_scsi_modepage.5, i64 0, i64 %24
  %switch.load69 = load ptr, ptr %switch.gep68, align 8
  br label %25

25:                                               ; preds = %switch.lookup, %17
  %.059 = phi ptr [ @scsi_spc_modepage_val, %17 ], [ %switch.load, %switch.lookup ]
  %.058.in = phi ptr [ @hf_scsi_spc_pagecode, %17 ], [ %switch.load67, %switch.lookup ]
  %.0 = phi ptr [ @dissect_scsi_spc_modepage, %17 ], [ %switch.load69, %switch.lookup ]
  %.058 = load i32, ptr %.058.in, align 4
  %26 = zext i16 %.062 to i32
  %27 = select i1 %.not, i32 2, i32 4
  %28 = add nuw nsw i32 %27, %26
  %29 = load i32, ptr @ett_scsi_page, align 4
  %30 = tail call ptr @val_to_str(i32 noundef %18, ptr noundef nonnull %.059, ptr noundef nonnull @.str.1620) #10
  %31 = tail call ptr (ptr, ptr, i32, i32, i32, ptr, ptr, ...) @proto_tree_add_subtree_format(ptr noundef nonnull %2, ptr noundef %0, i32 noundef %3, i32 noundef %28, i32 noundef %29, ptr noundef null, ptr noundef nonnull @.str.1626, ptr noundef %30) #10
  %32 = load i32, ptr @hf_scsi_modepage_ps, align 4
  %33 = tail call ptr @proto_tree_add_item(ptr noundef %31, i32 noundef %32, ptr noundef %0, i32 noundef %3, i32 noundef 1, i32 noundef 0) #10
  %34 = load i32, ptr @hf_scsi_modepage_spf, align 4
  %35 = tail call ptr @proto_tree_add_item(ptr noundef %31, i32 noundef %34, ptr noundef %0, i32 noundef %3, i32 noundef 1, i32 noundef 0) #10
  %36 = tail call ptr @proto_tree_add_item(ptr noundef %31, i32 noundef %.058, ptr noundef %0, i32 noundef %3, i32 noundef 1, i32 noundef 0) #10
  %37 = add i32 %3, 1
  br i1 %.not, label %44, label %38

38:                                               ; preds = %25
  %39 = load i32, ptr @hf_scsi_spc_subpagecode, align 4
  %40 = tail call ptr @proto_tree_add_item(ptr noundef %31, i32 noundef %39, ptr noundef %0, i32 noundef %37, i32 noundef 1, i32 noundef 0) #10
  %41 = load i32, ptr @hf_scsi_modepage_plen, align 4
  %42 = add i32 %3, 2
  %43 = tail call ptr @proto_tree_add_item(ptr noundef %31, i32 noundef %41, ptr noundef %0, i32 noundef %42, i32 noundef 2, i32 noundef 0) #10
  br label %47

44:                                               ; preds = %25
  %45 = load i32, ptr @hf_scsi_modepage_plen, align 4
  %46 = tail call ptr @proto_tree_add_item(ptr noundef %31, i32 noundef %45, ptr noundef %0, i32 noundef %37, i32 noundef 1, i32 noundef 0) #10
  br label %47

47:                                               ; preds = %44, %38
  %48 = tail call i32 @tvb_bytes_exist(ptr noundef %0, i32 noundef %3, i32 noundef %26) #10
  %.not64 = icmp eq i32 %48, 0
  br i1 %.not64, label %54, label %49

49:                                               ; preds = %47
  %50 = tail call i32 %.0(ptr noundef %0, ptr noundef %1, ptr noundef %31, i32 noundef %3, i8 noundef zeroext %7, i8 noundef zeroext %9, i8 noundef zeroext %.061) #10
  %.not65 = icmp eq i32 %50, 0
  br i1 %.not65, label %51, label %54

51:                                               ; preds = %49
  %52 = add i32 %3, 2
  %53 = tail call ptr @proto_tree_add_expert(ptr noundef %31, ptr noundef %1, ptr noundef nonnull @ei_scsi_unknown_page, ptr noundef %0, i32 noundef %52, i32 noundef %26) #10
  br label %54

54:                                               ; preds = %49, %51, %47
  %.060 = add nuw nsw i32 %26, 2
  ret i32 %.060
}